(dp0
S'WA'
p1
I4
sS'DE'
p2
I1
sS'WI'
p3
I3
sS'WV'
p4
I3
sS'HI'
p5
I1
sS'FL'
p6
I0
sS'WY'
p7
I1
sS'NH'
p8
I0
sS'NJ'
p9
I2
sS'NM'
p10
I2
sS'TX'
p11
I5
sS'LA'
p12
I4
sS'NC'
p13
I5
sS'ND'
p14
I1
sS'NE'
p15
I0
sS'TN'
p16
I3
sS'NY'
p17
I0
sS'PA'
p18
I5
sS'CA'
p19
I5
sS'NV'
p20
I2
sS'VA'
p21
I2
sS'CO'
p22
I2
sS'AK'
p23
I1
sS'AL'
p24
I0
sS'AR'
p25
I2
sS'VT'
p26
I3
sS'IL'
p27
I3
sS'GA'
p28
I5
sS'IN'
p29
I2
sS'IA'
p30
I2
sS'OK'
p31
I4
sS'AZ'
p32
I2
sS'ID'
p33
I2
sS'CT'
p34
I0
sS'ME'
p35
I4
sS'MD'
p36
I1
sS'MA'
p37
I0
sS'OH'
p38
I3
sS'UT'
p39
I3
sS'MO'
p40
I4
sS'MN'
p41
I4
sS'MI'
p42
I5
sS'RI'
p43
I0
sS'KS'
p44
I3
sS'MT'
p45
I3
sS'MS'
p46
I4
sS'SC'
p47
I1
sS'KY'
p48
I3
sS'OR'
p49
I2
sS'SD'
p50
I2
s.